; Function Attrs: nounwind uwtable
define internal void @cast_int_to_ptr(ptr noundef %0, ptr noundef %1, ptr noundef %2) #0 {
  %4 = getelementptr inbounds i8, ptr %1, i64 16
  %5 = load i16, ptr %4, align 8
  %6 = and i16 %5, 255
  %7 = icmp eq i16 %6, 14
  br i1 %7, label %8, label %16

8:                                                ; preds = %3
  store ptr %2, ptr %1, align 8
  %9 = getelementptr inbounds i8, ptr %1, i64 24
  %10 = getelementptr inbounds i8, ptr %1, i64 32
  %11 = getelementptr inbounds i8, ptr %1, i64 40
  %12 = load i64, ptr %11, align 8
  store i64 %12, ptr %10, align 8
  %13 = load i16, ptr %9, align 8
  %14 = and i16 %13, -256
  %15 = or disjoint i16 %14, 7
  store i16 %15, ptr %9, align 8
  br label %42

16:                                               ; preds = %3
  %17 = load ptr, ptr @type_uptr, align 8
  %18 = load ptr, ptr %1, align 8
  %.not = icmp eq ptr %18, null
  br i1 %.not, label %28, label %19

19:                                               ; preds = %16
  %20 = load i32, ptr %18, align 8
  %21 = icmp eq i32 %20, 31
  br i1 %21, label %22, label %26

22:                                               ; preds = %19
  %23 = getelementptr inbounds i8, ptr %18, i64 8
  %24 = load ptr, ptr %23, align 8
  %25 = load i32, ptr %24, align 8
  br label %26

26:                                               ; preds = %22, %19
  %.017 = phi i32 [ %25, %22 ], [ %20, %19 ]
  %27 = icmp eq i32 %.017, 40
  br label %28

28:                                               ; preds = %16, %26
  %.0 = phi i1 [ %27, %26 ], [ false, %16 ]
  tail call void @cast_no_check(ptr noundef %0, ptr noundef nonnull %1, ptr noundef %17, i1 noundef zeroext %.0)
  %29 = tail call noundef ptr @vmem_alloc(ptr noundef nonnull @expr_arena, i64 noundef 56) #10
  tail call void @llvm.memcpy.p0.p0.i64(ptr noundef nonnull align 8 dereferenceable(56) %29, ptr noundef nonnull align 8 dereferenceable(56) %1, i64 56, i1 false)
  %30 = load i16, ptr %4, align 8
  %31 = and i16 %30, -256
  %32 = or disjoint i16 %31, 9
  store i16 %32, ptr %4, align 8
  %33 = getelementptr inbounds i8, ptr %1, i64 24
  store i8 39, ptr %33, align 8
  %34 = load ptr, ptr @expr_arena, align 8
  %35 = ptrtoint ptr %29 to i64
  %36 = ptrtoint ptr %34 to i64
  %37 = sub i64 %35, %36
  %38 = sdiv exact i64 %37, 56
  %39 = trunc i64 %38 to i32
  %40 = getelementptr inbounds i8, ptr %1, i64 28
  store i32 %39, ptr %40, align 4
  %41 = getelementptr inbounds i8, ptr %1, i64 32
  store i32 0, ptr %41, align 8
  store ptr %2, ptr %1, align 8
  br label %42

42:                                               ; preds = %28, %8
  ret void
}